target datalayout = "e-m:e-p270:32:32-p271:32:32-p272:64:64-i64:64-i128:128-f80:128-n8:16:32:64-S128"
target triple = "x86_64-pc-linux-gnu"

%"class.arrow::SmallBasicDecimal.6" = type { i64 }
%"class.arrow::BasicDecimal64" = type { %"class.arrow::SmallBasicDecimal.6" }

; Function Attrs: mustprogress nounwind uwtable
define linkonce_odr noundef i64 @_ZN5arrow8internal16SafeSignedNegateIlEET_S2_(i64 noundef %0) #0 comdat {
  %2 = alloca i64, align 8
  store i64 %0, ptr %2, align 8, !tbaa !8
  %3 = load i64, ptr %2, align 8, !tbaa !8
  %4 = xor i64 %3, -1
  %5 = add i64 %4, 1
  ret i64 %5
}

; Function Attrs: mustprogress nounwind uwtable
define linkonce_odr void @_ZN5arrow17SmallBasicDecimalIlEC2IiiEET_(ptr noundef nonnull align 8 dereferenceable(8) %0, i32 noundef %1) unnamed_addr #0 comdat align 2 {
  %3 = alloca ptr, align 8
  %4 = alloca i32, align 4
  store ptr %0, ptr %3, align 8, !tbaa !34
  store i32 %1, ptr %4, align 4, !tbaa !30
  %5 = load ptr, ptr %3, align 8
  %6 = getelementptr inbounds nuw %"class.arrow::SmallBasicDecimal.6", ptr %5, i32 0, i32 0
  %7 = load i32, ptr %4, align 4, !tbaa !30
  %8 = sext i32 %7 to i64
  store i64 %8, ptr %6, align 8, !tbaa !36
  ret void
}

; Function Attrs: mustprogress uwtable
define noundef nonnull align 8 dereferenceable(8) ptr @_ZN5arrow14BasicDecimal646NegateEv(ptr noundef nonnull align 8 dereferenceable(8) %0) #6 align 2 {
  %2 = alloca ptr, align 8
  store ptr %0, ptr %2, align 8, !tbaa !92
  %3 = load ptr, ptr %2, align 8
  %4 = getelementptr inbounds nuw %"class.arrow::SmallBasicDecimal.6", ptr %3, i32 0, i32 0
  %5 = load i64, ptr %4, align 8, !tbaa !36
  %6 = call noundef i64 @_ZN5arrow8internal16SafeSignedNegateIlEET_S2_(i64 noundef %5)
  %7 = getelementptr inbounds nuw %"class.arrow::SmallBasicDecimal.6", ptr %3, i32 0, i32 0
  store i64 %6, ptr %7, align 8, !tbaa !36
  ret ptr %3
}

; Function Attrs: inlinehint mustprogress nounwind uwtable
define linkonce_odr void @_ZN5arrow14BasicDecimal64CI2NS_17SmallBasicDecimalIlEEIiiEET_(ptr noundef nonnull align 8 dereferenceable(8) %0, i32 noundef %1) unnamed_addr #3 comdat align 2 {
  %3 = alloca ptr, align 8
  %4 = alloca i32, align 4
  store ptr %0, ptr %3, align 8, !tbaa !92
  store i32 %1, ptr %4, align 4, !tbaa !30
  %5 = load ptr, ptr %3, align 8
  %6 = load i32, ptr %4, align 4, !tbaa !30
  call void @_ZN5arrow17SmallBasicDecimalIlEC2IiiEET_(ptr noundef nonnull align 8 dereferenceable(8) %5, i32 noundef %6) #12
  ret void
}

; Function Attrs: mustprogress nounwind uwtable
define weak_odr noundef i64 @_ZNK5arrow17SmallBasicDecimalIlE5valueEv(ptr noundef nonnull align 8 dereferenceable(8) %0) #0 comdat align 2 {
  %2 = alloca ptr, align 8
  store ptr %0, ptr %2, align 8, !tbaa !34
  %3 = load ptr, ptr %2, align 8
  %4 = getelementptr inbounds nuw %"class.arrow::SmallBasicDecimal.6", ptr %3, i32 0, i32 0
  %5 = load i64, ptr %4, align 8, !tbaa !36
  ret i64 %5
}

; Function Attrs: mustprogress uwtable
define linkonce_odr noundef nonnull align 8 dereferenceable(8) ptr @_ZN5arrow14BasicDecimal643AbsEv(ptr noundef nonnull align 8 dereferenceable(8) %0) #6 comdat align 2 {
  %2 = alloca ptr, align 8
  %3 = alloca %"class.arrow::BasicDecimal64", align 8
  store ptr %0, ptr %2, align 8, !tbaa !92
  %4 = load ptr, ptr %2, align 8
  call void @llvm.lifetime.start.p0(i64 8, ptr %3) #12
  call void @_ZN5arrow14BasicDecimal64CI2NS_17SmallBasicDecimalIlEEIiiEET_(ptr noundef nonnull align 8 dereferenceable(8) %3, i32 noundef 0) #12
  %5 = call noundef zeroext i1 @_ZN5arrowltERKNS_14BasicDecimal64ES2_(ptr noundef nonnull align 8 dereferenceable(8) %4, ptr noundef nonnull align 8 dereferenceable(8) %3)
  br i1 %5, label %6, label %8

6:                                                ; preds = %1
  %7 = call noundef nonnull align 8 dereferenceable(8) ptr @_ZN5arrow14BasicDecimal646NegateEv(ptr noundef nonnull align 8 dereferenceable(8) %4)
  br label %9

8:                                                ; preds = %1
  br label %9

9:                                                ; preds = %8, %6
  %10 = phi ptr [ %7, %6 ], [ %4, %8 ]
  call void @llvm.lifetime.end.p0(i64 8, ptr %3) #12
  ret ptr %10
}

; Function Attrs: mustprogress nounwind uwtable
define noundef zeroext i1 @_ZN5arrowltERKNS_14BasicDecimal64ES2_(ptr noundef nonnull align 8 dereferenceable(8) %0, ptr noundef nonnull align 8 dereferenceable(8) %1) #0 {
  %3 = alloca ptr, align 8
  %4 = alloca ptr, align 8
  store ptr %0, ptr %3, align 8, !tbaa !92
  store ptr %1, ptr %4, align 8, !tbaa !92
  %5 = load ptr, ptr %3, align 8, !tbaa !92
  %6 = call noundef i64 @_ZNK5arrow17SmallBasicDecimalIlE5valueEv(ptr noundef nonnull align 8 dereferenceable(8) %5)
  %7 = load ptr, ptr %4, align 8, !tbaa !92
  %8 = call noundef i64 @_ZNK5arrow17SmallBasicDecimalIlE5valueEv(ptr noundef nonnull align 8 dereferenceable(8) %7)
  %9 = icmp slt i64 %6, %8
  ret i1 %9
}

; Function Attrs: mustprogress nounwind uwtable
define linkonce_odr noundef ptr @_ZN5arrow13DecimalTraitsINS_14BasicDecimal64EE13powers_of_tenEv() #0 comdat align 2 {
  ret ptr @_ZN5arrowL21kDecimal64PowersOfTenE
}

; Function Attrs: mustprogress uwtable
define linkonce_odr i64 @_ZN5arrow14BasicDecimal643AbsERKS0_(ptr noundef nonnull align 8 dereferenceable(8) %0) #6 comdat align 2 {
  %2 = alloca %"class.arrow::BasicDecimal64", align 8
  %3 = alloca ptr, align 8
  %4 = alloca %"class.arrow::BasicDecimal64", align 8
  store ptr %0, ptr %3, align 8, !tbaa !92
  call void @llvm.lifetime.start.p0(i64 8, ptr %4) #12
  %5 = load ptr, ptr %3, align 8, !tbaa !92
  call void @llvm.memcpy.p0.p0.i64(ptr align 8 %4, ptr align 8 %5, i64 8, i1 false)
  %6 = call noundef nonnull align 8 dereferenceable(8) ptr @_ZN5arrow14BasicDecimal643AbsEv(ptr noundef nonnull align 8 dereferenceable(8) %4)
  call void @llvm.memcpy.p0.p0.i64(ptr align 8 %2, ptr align 8 %6, i64 8, i1 false)
  call void @llvm.lifetime.end.p0(i64 8, ptr %4) #12
  %7 = getelementptr inbounds nuw %"class.arrow::BasicDecimal64", ptr %2, i32 0, i32 0
  %8 = getelementptr inbounds nuw %"class.arrow::SmallBasicDecimal.6", ptr %7, i32 0, i32 0
  %9 = load i64, ptr %8, align 8
  ret i64 %9
}

; Function Attrs: mustprogress uwtable
define noundef zeroext i1 @_ZNK5arrow14BasicDecimal6415FitsInPrecisionEi(ptr noundef nonnull align 8 dereferenceable(8) %0, i32 noundef %1) #6 align 2 {
  %3 = alloca i1, align 1
  %4 = alloca ptr, align 8
  %5 = alloca i32, align 4
  %6 = alloca %"class.arrow::BasicDecimal64", align 8
  store ptr %0, ptr %4, align 8, !tbaa !92
  store i32 %1, ptr %5, align 4, !tbaa !30
  %7 = load ptr, ptr %4, align 8
  br label %8

8:                                                ; preds = %9, %2
  br i1 false, label %9, label %10

9:                                                ; preds = %8
  br label %8, !llvm.loop !142

10:                                               ; preds = %8
  br label %11

11:                                               ; preds = %12, %10
  br i1 false, label %12, label %13

12:                                               ; preds = %11
  br label %11, !llvm.loop !143

13:                                               ; preds = %11
  br label %14

14:                                               ; preds = %15, %13
  br i1 false, label %15, label %16

15:                                               ; preds = %14
  br label %14, !llvm.loop !144

16:                                               ; preds = %14
  br label %17

17:                                               ; preds = %18, %16
  br i1 false, label %18, label %19

18:                                               ; preds = %17
  br label %17, !llvm.loop !145

19:                                               ; preds = %17
  br label %20

20:                                               ; preds = %21, %19
  br i1 false, label %21, label %22

21:                                               ; preds = %20
  br label %20, !llvm.loop !146

22:                                               ; preds = %20
  br label %23

23:                                               ; preds = %24, %22
  br i1 false, label %24, label %25

24:                                               ; preds = %23
  br label %23, !llvm.loop !147

25:                                               ; preds = %23
  %26 = getelementptr inbounds nuw %"class.arrow::SmallBasicDecimal.6", ptr %7, i32 0, i32 0
  %27 = load i64, ptr %26, align 8, !tbaa !36
  %28 = icmp eq i64 %27, -9223372036854775808
  br i1 %28, label %29, label %30

29:                                               ; preds = %25
  store i1 false, ptr %3, align 1
  br label %39

30:                                               ; preds = %25
  call void @llvm.lifetime.start.p0(i64 8, ptr %6) #12
  %31 = call i64 @_ZN5arrow14BasicDecimal643AbsERKS0_(ptr noundef nonnull align 8 dereferenceable(8) %7)
  %32 = getelementptr inbounds nuw %"class.arrow::BasicDecimal64", ptr %6, i32 0, i32 0
  %33 = getelementptr inbounds nuw %"class.arrow::SmallBasicDecimal.6", ptr %32, i32 0, i32 0
  store i64 %31, ptr %33, align 8
  %34 = call noundef ptr @_ZN5arrow13DecimalTraitsINS_14BasicDecimal64EE13powers_of_tenEv()
  %35 = load i32, ptr %5, align 4, !tbaa !30
  %36 = sext i32 %35 to i64
  %37 = getelementptr inbounds %"class.arrow::BasicDecimal64", ptr %34, i64 %36
  %38 = call noundef zeroext i1 @_ZN5arrowltERKNS_14BasicDecimal64ES2_(ptr noundef nonnull align 8 dereferenceable(8) %6, ptr noundef nonnull align 8 dereferenceable(8) %37)
  store i1 %38, ptr %3, align 1
  call void @llvm.lifetime.end.p0(i64 8, ptr %6) #12
  br label %39

39:                                               ; preds = %30, %29
  %40 = load i1, ptr %3, align 1
  ret i1 %40
}