; Function Attrs: mustprogress nofree norecurse nosync nounwind willreturn memory(argmem: read) uwtable
define noundef zeroext i1 @_ZNK5arrow14BasicDecimal6415FitsInPrecisionEi(ptr noundef nonnull readonly align 8 captures(none) dereferenceable(8) %0, i32 noundef %1) local_unnamed_addr #7 align 2 {
  %3 = load i64, ptr %0, align 8, !tbaa !13
  %4 = icmp eq i64 %3, -9223372036854775808
  br i1 %4, label %10, label %5

5:                                                ; preds = %2
  %spec.select.i = tail call i64 @llvm.abs.i64(i64 %3, i1 true)
  %6 = sext i32 %1 to i64
  %7 = getelementptr inbounds %"class.arrow::BasicDecimal64", ptr @_ZN5arrowL21kDecimal64PowersOfTenE, i64 %6
  %8 = load i64, ptr %7, align 8, !tbaa !13
  %9 = icmp slt i64 %spec.select.i, %8
  br label %10

10:                                               ; preds = %2, %5
  %.0 = phi i1 [ %9, %5 ], [ false, %2 ]
  ret i1 %.0
}